target datalayout = "e-m:e-p270:32:32-p271:32:32-p272:64:64-i64:64-i128:128-f80:128-n8:16:32:64-S128"
target triple = "x86_64-pc-linux-gnu"

%"struct.open3d::core::TensorRef" = type { ptr, i64, i64, [5 x i64], [5 x i64] }

@.str.1 = private unnamed_addr constant [119 x i8] c"generated/home/dtcxzyw/WorkSpace/Projects/compilers/llvm-opt-benchmark/bench/open3d/Open3D/cpp/open3d/core/Indexer.cpp\00", align 1
@__PRETTY_FUNCTION__._ZN6open3d4core7Indexer17ReductionRestrideERNS0_9TensorRefElPKlRKNS0_10SizeVectorE = private unnamed_addr constant [112 x i8] c"static void open3d::core::Indexer::ReductionRestride(TensorRef &, int64_t, const int64_t *, const SizeVector &)\00", align 1
@.str.67 = private unnamed_addr constant [45 x i8] c"Internal error, src ndims {} != dst ndims {}\00", align 1

; Function Attrs: mustprogress ssp uwtable
define void @_ZN6open3d4core7Indexer17ReductionRestrideERNS0_9TensorRefElPKlRKNS0_10SizeVectorE(ptr noundef nonnull align 8 dereferenceable(104) %0, i64 noundef %1, ptr noundef %2, ptr noundef nonnull align 8 dereferenceable(48) %3) #0 align 2 {
  %5 = alloca ptr, align 8
  %6 = alloca i64, align 8
  %7 = alloca ptr, align 8
  %8 = alloca ptr, align 8
  %9 = alloca i64, align 8
  store ptr %0, ptr %5, align 8, !tbaa !104
  store i64 %1, ptr %6, align 8, !tbaa !32
  store ptr %2, ptr %7, align 8, !tbaa !71
  store ptr %3, ptr %8, align 8, !tbaa !15
  %10 = load ptr, ptr %5, align 8, !tbaa !104
  %11 = getelementptr inbounds nuw %"struct.open3d::core::TensorRef", ptr %10, i32 0, i32 1
  %12 = load i64, ptr %11, align 8, !tbaa !39
  %13 = load i64, ptr %6, align 8, !tbaa !32
  %14 = icmp ne i64 %12, %13
  br i1 %14, label %15, label %18

15:                                               ; preds = %4
  %16 = load ptr, ptr %5, align 8, !tbaa !104
  %17 = getelementptr inbounds nuw %"struct.open3d::core::TensorRef", ptr %16, i32 0, i32 1
  call void @_ZN6open3d7utility6Logger9LogError_IJRlS3_EEEvPKciS5_S5_DpOT_(ptr noundef @.str.1, i32 noundef 608, ptr noundef @__PRETTY_FUNCTION__._ZN6open3d4core7Indexer17ReductionRestrideERNS0_9TensorRefElPKlRKNS0_10SizeVectorE, ptr noundef @.str.67, ptr noundef nonnull align 8 dereferenceable(8) %6, ptr noundef nonnull align 8 dereferenceable(8) %17) #28
  unreachable

18:                                               ; preds = %4
  call void @llvm.lifetime.start.p0(i64 8, ptr %9) #27
  store i64 0, ptr %9, align 8, !tbaa !32
  br label %19

19:                                               ; preds = %45, %18
  %20 = load i64, ptr %9, align 8, !tbaa !32
  %21 = load ptr, ptr %5, align 8, !tbaa !104
  %22 = getelementptr inbounds nuw %"struct.open3d::core::TensorRef", ptr %21, i32 0, i32 1
  %23 = load i64, ptr %22, align 8, !tbaa !39
  %24 = icmp slt i64 %20, %23
  br i1 %24, label %26, label %25

25:                                               ; preds = %19
  call void @llvm.lifetime.end.p0(i64 8, ptr %9) #27
  br label %48

26:                                               ; preds = %19
  %27 = load ptr, ptr %5, align 8, !tbaa !104
  %28 = getelementptr inbounds nuw %"struct.open3d::core::TensorRef", ptr %27, i32 0, i32 3
  %29 = load i64, ptr %9, align 8, !tbaa !32
  %30 = getelementptr inbounds [5 x i64], ptr %28, i64 0, i64 %29
  %31 = load i64, ptr %30, align 8, !tbaa !32
  %32 = icmp eq i64 %31, 1
  br i1 %32, label %33, label %44

33:                                               ; preds = %26
  %34 = load ptr, ptr %7, align 8, !tbaa !71
  %35 = load i64, ptr %9, align 8, !tbaa !32
  %36 = getelementptr inbounds i64, ptr %34, i64 %35
  %37 = load i64, ptr %36, align 8, !tbaa !32
  %38 = icmp ne i64 %37, 1
  br i1 %38, label %39, label %44

39:                                               ; preds = %33
  %40 = load ptr, ptr %5, align 8, !tbaa !104
  %41 = getelementptr inbounds nuw %"struct.open3d::core::TensorRef", ptr %40, i32 0, i32 4
  %42 = load i64, ptr %9, align 8, !tbaa !32
  %43 = getelementptr inbounds [5 x i64], ptr %41, i64 0, i64 %42
  store i64 0, ptr %43, align 8, !tbaa !32
  br label %44

44:                                               ; preds = %39, %33, %26
  br label %45

45:                                               ; preds = %44
  %46 = load i64, ptr %9, align 8, !tbaa !32
  %47 = add nsw i64 %46, 1
  store i64 %47, ptr %9, align 8, !tbaa !32
  br label %19, !llvm.loop !122

48:                                               ; preds = %25
  ret void
}