; Function Attrs: mustprogress ssp uwtable
define void @_ZN6open3d4core7Indexer17ReductionRestrideERNS0_9TensorRefElPKlRKNS0_10SizeVectorE(ptr noundef nonnull align 8 dereferenceable(104) %0, i64 noundef %1, ptr noundef readonly captures(none) %2, ptr noundef nonnull readnone align 8 captures(none) dereferenceable(48) %3) local_unnamed_addr #0 align 2 {
  %5 = alloca i64, align 8
  store i64 %1, ptr %5, align 8, !tbaa !42
  %6 = getelementptr inbounds nuw i8, ptr %0, i64 8
  %7 = load i64, ptr %6, align 8, !tbaa !63
  %.not = icmp eq i64 %7, %1
  br i1 %.not, label %.preheader, label %11

.preheader:                                       ; preds = %4
  %8 = icmp sgt i64 %1, 0
  br i1 %8, label %.lr.ph, label %._crit_edge

.lr.ph:                                           ; preds = %.preheader
  %9 = getelementptr inbounds nuw i8, ptr %0, i64 24
  %10 = getelementptr inbounds nuw i8, ptr %0, i64 64
  br label %12

11:                                               ; preds = %4
  call void @_ZN6open3d7utility6Logger9LogError_IJRlS3_EEEvPKciS5_S5_DpOT_(ptr noundef nonnull @.str.1, i32 noundef 608, ptr noundef nonnull @__PRETTY_FUNCTION__._ZN6open3d4core7Indexer17ReductionRestrideERNS0_9TensorRefElPKlRKNS0_10SizeVectorE, ptr noundef nonnull @.str.67, ptr noundef nonnull align 8 dereferenceable(8) %5, ptr noundef nonnull align 8 dereferenceable(8) %6) #36
  unreachable

._crit_edge:                                      ; preds = %21, %.preheader
  ret void

12:                                               ; preds = %.lr.ph, %21
  %.011 = phi i64 [ 0, %.lr.ph ], [ %22, %21 ]
  %13 = getelementptr inbounds nuw [5 x i64], ptr %9, i64 0, i64 %.011
  %14 = load i64, ptr %13, align 8, !tbaa !42
  %15 = icmp eq i64 %14, 1
  br i1 %15, label %16, label %21

16:                                               ; preds = %12
  %17 = getelementptr inbounds nuw i64, ptr %2, i64 %.011
  %18 = load i64, ptr %17, align 8, !tbaa !42
  %.not10 = icmp eq i64 %18, 1
  br i1 %.not10, label %21, label %19

19:                                               ; preds = %16
  %20 = getelementptr inbounds nuw [5 x i64], ptr %10, i64 0, i64 %.011
  store i64 0, ptr %20, align 8, !tbaa !42
  br label %21

21:                                               ; preds = %12, %16, %19
  %22 = add nuw nsw i64 %.011, 1
  %exitcond.not = icmp eq i64 %22, %1
  br i1 %exitcond.not, label %._crit_edge, label %12, !llvm.loop !70
}